target datalayout = "e-m:e-p270:32:32-p271:32:32-p272:64:64-i64:64-i128:128-f80:128-n8:16:32:64-S128"
target triple = "x86_64-pc-linux-gnu"

%struct.If_Man_t_ = type { ptr, ptr, ptr, ptr, ptr, ptr, ptr, ptr, [5 x i32], i32, float, float, float, float, i32, float, i32, i32, [4 x ptr], ptr, i32, i32, i32, ptr, [3 x [32 x i32]], i32, i32, i32, ptr, ptr, ptr, ptr, ptr, ptr, ptr, i32, i32, i32, [16 x i32], i32, i32, i32, i32, ptr, ptr, ptr, ptr, ptr, i32, i32, [32 x i32], [32 x i32], i32, i32, i32, i32, ptr, [16 x ptr], [16 x ptr], [16 x ptr], [16 x ptr], [16 x ptr], [16 x ptr], [16 x ptr], ptr, ptr, ptr, ptr, [32 x i8], i32, i32, i32, [6 x i64], [2 x i32], [2 x i32], ptr, [15 x i32], ptr, ptr, ptr, [16 x i32], ptr, ptr, ptr, ptr, [2 x i32], [2 x i32], [2 x ptr], ptr }
%struct.Vec_Ptr_t_ = type { i32, i32, ptr }
%struct.If_Obj_t_ = type { i32, i32, i32, i32, i32, i32, ptr, ptr, ptr, float, float, float, %union.anon, ptr, %struct.If_Cut_t_ }
%union.anon = type { ptr }
%struct.If_Cut_t_ = type <{ float, float, float, float, i32, i32, i32, i48, [0 x i32] }>

; Function Attrs: nounwind uwtable
define internal ptr @If_ObjFanin1(ptr noundef %0) #0 {
  %2 = alloca ptr, align 8
  store ptr %0, ptr %2, align 8
  %3 = load ptr, ptr %2, align 8
  %4 = getelementptr inbounds %struct.If_Obj_t_, ptr %3, i32 0, i32 7
  %5 = load ptr, ptr %4, align 8
  ret ptr %5
}

; Function Attrs: nounwind uwtable
define internal i32 @If_ObjIsCi(ptr noundef %0) #0 {
  %2 = alloca ptr, align 8
  store ptr %0, ptr %2, align 8
  %3 = load ptr, ptr %2, align 8
  %4 = load i32, ptr %3, align 8
  %5 = and i32 %4, 15
  %6 = icmp eq i32 %5, 2
  %7 = zext i1 %6 to i32
  ret i32 %7
}

; Function Attrs: nounwind uwtable
define internal ptr @If_ObjFanin0(ptr noundef %0) #0 {
  %2 = alloca ptr, align 8
  store ptr %0, ptr %2, align 8
  %3 = load ptr, ptr %2, align 8
  %4 = getelementptr inbounds %struct.If_Obj_t_, ptr %3, i32 0, i32 6
  %5 = load ptr, ptr %4, align 8
  ret ptr %5
}

; Function Attrs: nounwind uwtable
define internal i32 @If_ObjIsAnd(ptr noundef %0) #0 {
  %2 = alloca ptr, align 8
  store ptr %0, ptr %2, align 8
  %3 = load ptr, ptr %2, align 8
  %4 = load i32, ptr %3, align 8
  %5 = and i32 %4, 15
  %6 = icmp eq i32 %5, 4
  %7 = zext i1 %6 to i32
  ret i32 %7
}

; Function Attrs: nounwind uwtable
define internal ptr @Vec_PtrEntry(ptr noundef %0, i32 noundef %1) #0 {
  %3 = alloca ptr, align 8
  %4 = alloca i32, align 4
  store ptr %0, ptr %3, align 8
  store i32 %1, ptr %4, align 4
  %5 = load ptr, ptr %3, align 8
  %6 = getelementptr inbounds %struct.Vec_Ptr_t_, ptr %5, i32 0, i32 2
  %7 = load ptr, ptr %6, align 8
  %8 = load i32, ptr %4, align 4
  %9 = sext i32 %8 to i64
  %10 = getelementptr inbounds ptr, ptr %7, i64 %9
  %11 = load ptr, ptr %10, align 8
  ret ptr %11
}

; Function Attrs: nounwind uwtable
define internal i32 @Vec_PtrSize(ptr noundef %0) #0 {
  %2 = alloca ptr, align 8
  store ptr %0, ptr %2, align 8
  %3 = load ptr, ptr %2, align 8
  %4 = getelementptr inbounds %struct.Vec_Ptr_t_, ptr %3, i32 0, i32 1
  %5 = load i32, ptr %4, align 4
  ret i32 %5
}

; Function Attrs: nounwind uwtable
define i32 @If_ManCrossCut(ptr noundef %0) #0 {
  %2 = alloca ptr, align 8
  %3 = alloca ptr, align 8
  %4 = alloca ptr, align 8
  %5 = alloca i32, align 4
  %6 = alloca i32, align 4
  %7 = alloca i32, align 4
  store ptr %0, ptr %2, align 8
  store i32 0, ptr %6, align 4
  store i32 0, ptr %7, align 4
  store i32 0, ptr %5, align 4
  br label %8

8:                                                ; preds = %104, %1
  %9 = load i32, ptr %5, align 4
  %10 = load ptr, ptr %2, align 8
  %11 = getelementptr inbounds %struct.If_Man_t_, ptr %10, i32 0, i32 5
  %12 = load ptr, ptr %11, align 8
  %13 = call i32 @Vec_PtrSize(ptr noundef %12)
  %14 = icmp slt i32 %9, %13
  br i1 %14, label %15, label %21

15:                                               ; preds = %8
  %16 = load ptr, ptr %2, align 8
  %17 = getelementptr inbounds %struct.If_Man_t_, ptr %16, i32 0, i32 5
  %18 = load ptr, ptr %17, align 8
  %19 = load i32, ptr %5, align 4
  %20 = call ptr @Vec_PtrEntry(ptr noundef %18, i32 noundef %19)
  store ptr %20, ptr %3, align 8
  br label %21

21:                                               ; preds = %15, %8
  %22 = phi i1 [ false, %8 ], [ true, %15 ]
  br i1 %22, label %23, label %107

23:                                               ; preds = %21
  %24 = load ptr, ptr %3, align 8
  %25 = call i32 @If_ObjIsAnd(ptr noundef %24)
  %26 = icmp ne i32 %25, 0
  br i1 %26, label %28, label %27

27:                                               ; preds = %23
  br label %104

28:                                               ; preds = %23
  %29 = load i32, ptr %7, align 4
  %30 = load i32, ptr %6, align 4
  %31 = add nsw i32 %30, 1
  store i32 %31, ptr %6, align 4
  %32 = icmp slt i32 %29, %31
  br i1 %32, label %33, label %35

33:                                               ; preds = %28
  %34 = load i32, ptr %6, align 4
  store i32 %34, ptr %7, align 4
  br label %35

35:                                               ; preds = %33, %28
  %36 = load ptr, ptr %3, align 8
  %37 = getelementptr inbounds %struct.If_Obj_t_, ptr %36, i32 0, i32 4
  %38 = load i32, ptr %37, align 8
  %39 = icmp eq i32 %38, 0
  br i1 %39, label %40, label %43

40:                                               ; preds = %35
  %41 = load i32, ptr %6, align 4
  %42 = add nsw i32 %41, -1
  store i32 %42, ptr %6, align 4
  br label %43

43:                                               ; preds = %40, %35
  %44 = load ptr, ptr %3, align 8
  %45 = call ptr @If_ObjFanin0(ptr noundef %44)
  store ptr %45, ptr %4, align 8
  %46 = load ptr, ptr %4, align 8
  %47 = call i32 @If_ObjIsCi(ptr noundef %46)
  %48 = icmp ne i32 %47, 0
  br i1 %48, label %58, label %49

49:                                               ; preds = %43
  %50 = load ptr, ptr %4, align 8
  %51 = getelementptr inbounds %struct.If_Obj_t_, ptr %50, i32 0, i32 4
  %52 = load i32, ptr %51, align 8
  %53 = add nsw i32 %52, -1
  store i32 %53, ptr %51, align 8
  %54 = icmp eq i32 %53, 0
  br i1 %54, label %55, label %58

55:                                               ; preds = %49
  %56 = load i32, ptr %6, align 4
  %57 = add nsw i32 %56, -1
  store i32 %57, ptr %6, align 4
  br label %58

58:                                               ; preds = %55, %49, %43
  %59 = load ptr, ptr %3, align 8
  %60 = call ptr @If_ObjFanin1(ptr noundef %59)
  store ptr %60, ptr %4, align 8
  %61 = load ptr, ptr %4, align 8
  %62 = call i32 @If_ObjIsCi(ptr noundef %61)
  %63 = icmp ne i32 %62, 0
  br i1 %63, label %73, label %64

64:                                               ; preds = %58
  %65 = load ptr, ptr %4, align 8
  %66 = getelementptr inbounds %struct.If_Obj_t_, ptr %65, i32 0, i32 4
  %67 = load i32, ptr %66, align 8
  %68 = add nsw i32 %67, -1
  store i32 %68, ptr %66, align 8
  %69 = icmp eq i32 %68, 0
  br i1 %69, label %70, label %73

70:                                               ; preds = %64
  %71 = load i32, ptr %6, align 4
  %72 = add nsw i32 %71, -1
  store i32 %72, ptr %6, align 4
  br label %73

73:                                               ; preds = %70, %64, %58
  %74 = load ptr, ptr %3, align 8
  %75 = load i32, ptr %74, align 8
  %76 = lshr i32 %75, 7
  %77 = and i32 %76, 1
  %78 = icmp ne i32 %77, 0
  br i1 %78, label %79, label %103

79:                                               ; preds = %73
  %80 = load ptr, ptr %3, align 8
  store ptr %80, ptr %4, align 8
  br label %81

81:                                               ; preds = %98, %79
  %82 = load ptr, ptr %4, align 8
  %83 = icmp ne ptr %82, null
  br i1 %83, label %84, label %102

84:                                               ; preds = %81
  %85 = load ptr, ptr %4, align 8
  %86 = call i32 @If_ObjIsCi(ptr noundef %85)
  %87 = icmp ne i32 %86, 0
  br i1 %87, label %97, label %88

88:                                               ; preds = %84
  %89 = load ptr, ptr %4, align 8
  %90 = getelementptr inbounds %struct.If_Obj_t_, ptr %89, i32 0, i32 4
  %91 = load i32, ptr %90, align 8
  %92 = add nsw i32 %91, -1
  store i32 %92, ptr %90, align 8
  %93 = icmp eq i32 %92, 0
  br i1 %93, label %94, label %97

94:                                               ; preds = %88
  %95 = load i32, ptr %6, align 4
  %96 = add nsw i32 %95, -1
  store i32 %96, ptr %6, align 4
  br label %97

97:                                               ; preds = %94, %88, %84
  br label %98

98:                                               ; preds = %97
  %99 = load ptr, ptr %4, align 8
  %100 = getelementptr inbounds %struct.If_Obj_t_, ptr %99, i32 0, i32 8
  %101 = load ptr, ptr %100, align 8
  store ptr %101, ptr %4, align 8
  br label %81, !llvm.loop !10

102:                                              ; preds = %81
  br label %103

103:                                              ; preds = %102, %73
  br label %104

104:                                              ; preds = %103, %27
  %105 = load i32, ptr %5, align 4
  %106 = add nsw i32 %105, 1
  store i32 %106, ptr %5, align 4
  br label %8, !llvm.loop !11

107:                                              ; preds = %21
  store i32 0, ptr %5, align 4
  br label %108

108:                                              ; preds = %129, %107
  %109 = load i32, ptr %5, align 4
  %110 = load ptr, ptr %2, align 8
  %111 = getelementptr inbounds %struct.If_Man_t_, ptr %110, i32 0, i32 5
  %112 = load ptr, ptr %111, align 8
  %113 = call i32 @Vec_PtrSize(ptr noundef %112)
  %114 = icmp slt i32 %109, %113
  br i1 %114, label %115, label %121

115:                                              ; preds = %108
  %116 = load ptr, ptr %2, align 8
  %117 = getelementptr inbounds %struct.If_Man_t_, ptr %116, i32 0, i32 5
  %118 = load ptr, ptr %117, align 8
  %119 = load i32, ptr %5, align 4
  %120 = call ptr @Vec_PtrEntry(ptr noundef %118, i32 noundef %119)
  store ptr %120, ptr %3, align 8
  br label %121

121:                                              ; preds = %115, %108
  %122 = phi i1 [ false, %108 ], [ true, %115 ]
  br i1 %122, label %123, label %132

123:                                              ; preds = %121
  %124 = load ptr, ptr %3, align 8
  %125 = getelementptr inbounds %struct.If_Obj_t_, ptr %124, i32 0, i32 5
  %126 = load i32, ptr %125, align 4
  %127 = load ptr, ptr %3, align 8
  %128 = getelementptr inbounds %struct.If_Obj_t_, ptr %127, i32 0, i32 4
  store i32 %126, ptr %128, align 8
  br label %129

129:                                              ; preds = %123
  %130 = load i32, ptr %5, align 4
  %131 = add nsw i32 %130, 1
  store i32 %131, ptr %5, align 4
  br label %108, !llvm.loop !12

132:                                              ; preds = %121
  %133 = load i32, ptr %7, align 4
  ret i32 %133
}