; Function Attrs: nofree norecurse nosync nounwind memory(readwrite, inaccessiblemem: none) uwtable
define range(i32 0, -2147483648) i32 @If_ManCrossCut(ptr noundef readonly captures(none) %0) local_unnamed_addr #0 {
  %2 = getelementptr inbounds nuw i8, ptr %0, i64 40
  %3 = load ptr, ptr %2, align 8
  %4 = getelementptr i8, ptr %3, i64 4
  %.val5164 = load i32, ptr %4, align 4
  %5 = icmp sgt i32 %.val5164, 0
  br i1 %5, label %.lr.ph, label %.critedge2

.critedge.preheader:                              ; preds = %.loopexit
  %6 = icmp sgt i32 %.val51, 0
  br i1 %6, label %.critedge, label %.critedge2

.lr.ph:                                           ; preds = %1, %.loopexit
  %indvars.iv = phi i64 [ %indvars.iv.next, %.loopexit ], [ 0, %1 ]
  %7 = phi ptr [ %47, %.loopexit ], [ %3, %1 ]
  %.067 = phi i32 [ %.1, %.loopexit ], [ 0, %1 ]
  %.03566 = phi i32 [ %.136, %.loopexit ], [ 0, %1 ]
  %8 = getelementptr i8, ptr %7, i64 8
  %.val53 = load ptr, ptr %8, align 8
  %9 = getelementptr inbounds nuw ptr, ptr %.val53, i64 %indvars.iv
  %10 = load ptr, ptr %9, align 8
  %.val54 = load i32, ptr %10, align 8
  %11 = and i32 %.val54, 15
  %.not = icmp eq i32 %11, 4
  br i1 %.not, label %12, label %.loopexit

12:                                               ; preds = %.lr.ph
  %13 = add nsw i32 %.03566, 1
  %.not42 = icmp sgt i32 %.067, %.03566
  %spec.select = select i1 %.not42, i32 %.067, i32 %13
  %14 = getelementptr inbounds nuw i8, ptr %10, i64 16
  %15 = load i32, ptr %14, align 8
  %16 = icmp eq i32 %15, 0
  %.237 = select i1 %16, i32 %.03566, i32 %13
  %17 = getelementptr i8, ptr %10, i64 24
  %.val55 = load ptr, ptr %17, align 8
  %.val56 = load i32, ptr %.val55, align 8
  %18 = and i32 %.val56, 15
  %.not59 = icmp eq i32 %18, 2
  br i1 %.not59, label %25, label %19

19:                                               ; preds = %12
  %20 = getelementptr inbounds nuw i8, ptr %.val55, i64 16
  %21 = load i32, ptr %20, align 8
  %22 = add nsw i32 %21, -1
  store i32 %22, ptr %20, align 8
  %23 = icmp eq i32 %22, 0
  %24 = sext i1 %23 to i32
  %spec.select48 = add nsw i32 %.237, %24
  br label %25

25:                                               ; preds = %19, %12
  %.3 = phi i32 [ %.237, %12 ], [ %spec.select48, %19 ]
  %26 = getelementptr i8, ptr %10, i64 32
  %.val58 = load ptr, ptr %26, align 8
  %.val57 = load i32, ptr %.val58, align 8
  %27 = and i32 %.val57, 15
  %.not60 = icmp eq i32 %27, 2
  br i1 %.not60, label %34, label %28

28:                                               ; preds = %25
  %29 = getelementptr inbounds nuw i8, ptr %.val58, i64 16
  %30 = load i32, ptr %29, align 8
  %31 = add nsw i32 %30, -1
  store i32 %31, ptr %29, align 8
  %32 = icmp eq i32 %31, 0
  %33 = sext i1 %32 to i32
  %spec.select49 = add nsw i32 %.3, %33
  br label %34

34:                                               ; preds = %28, %25
  %.4 = phi i32 [ %.3, %25 ], [ %spec.select49, %28 ]
  %35 = load i32, ptr %10, align 8
  %36 = and i32 %35, 128
  %.not45 = icmp eq i32 %36, 0
  br i1 %.not45, label %.loopexit, label %.preheader

.preheader:                                       ; preds = %34, %44
  %.563 = phi i32 [ %.6, %44 ], [ %.4, %34 ]
  %.04062 = phi ptr [ %46, %44 ], [ %10, %34 ]
  %.040.val = load i32, ptr %.04062, align 8
  %37 = and i32 %.040.val, 15
  %.not61 = icmp eq i32 %37, 2
  br i1 %.not61, label %44, label %38

38:                                               ; preds = %.preheader
  %39 = getelementptr inbounds nuw i8, ptr %.04062, i64 16
  %40 = load i32, ptr %39, align 8
  %41 = add nsw i32 %40, -1
  store i32 %41, ptr %39, align 8
  %42 = icmp eq i32 %41, 0
  %43 = sext i1 %42 to i32
  %spec.select50 = add nsw i32 %.563, %43
  br label %44

44:                                               ; preds = %38, %.preheader
  %.6 = phi i32 [ %.563, %.preheader ], [ %spec.select50, %38 ]
  %45 = getelementptr inbounds nuw i8, ptr %.04062, i64 40
  %46 = load ptr, ptr %45, align 8
  %.not46 = icmp eq ptr %46, null
  br i1 %.not46, label %.loopexit, label %.preheader, !llvm.loop !10

.loopexit:                                        ; preds = %44, %34, %.lr.ph
  %.136 = phi i32 [ %.4, %34 ], [ %.03566, %.lr.ph ], [ %.6, %44 ]
  %.1 = phi i32 [ %spec.select, %34 ], [ %.067, %.lr.ph ], [ %spec.select, %44 ]
  %indvars.iv.next = add nuw nsw i64 %indvars.iv, 1
  %47 = load ptr, ptr %2, align 8
  %48 = getelementptr i8, ptr %47, i64 4
  %.val51 = load i32, ptr %48, align 4
  %49 = sext i32 %.val51 to i64
  %50 = icmp slt i64 %indvars.iv.next, %49
  br i1 %50, label %.lr.ph, label %.critedge.preheader, !llvm.loop !11

.critedge:                                        ; preds = %.critedge.preheader, %.critedge
  %indvars.iv73 = phi i64 [ %indvars.iv.next74, %.critedge ], [ 0, %.critedge.preheader ]
  %51 = phi ptr [ %58, %.critedge ], [ %47, %.critedge.preheader ]
  %52 = getelementptr i8, ptr %51, i64 8
  %.val52 = load ptr, ptr %52, align 8
  %53 = getelementptr inbounds nuw ptr, ptr %.val52, i64 %indvars.iv73
  %54 = load ptr, ptr %53, align 8
  %55 = getelementptr inbounds nuw i8, ptr %54, i64 20
  %56 = load i32, ptr %55, align 4
  %57 = getelementptr inbounds nuw i8, ptr %54, i64 16
  store i32 %56, ptr %57, align 8
  %indvars.iv.next74 = add nuw nsw i64 %indvars.iv73, 1
  %58 = load ptr, ptr %2, align 8
  %59 = getelementptr i8, ptr %58, i64 4
  %.val = load i32, ptr %59, align 4
  %60 = sext i32 %.val to i64
  %61 = icmp slt i64 %indvars.iv.next74, %60
  br i1 %61, label %.critedge, label %.critedge2, !llvm.loop !12

.critedge2:                                       ; preds = %.critedge, %1, %.critedge.preheader
  %.0.lcssa79 = phi i32 [ %.1, %.critedge.preheader ], [ 0, %1 ], [ %.1, %.critedge ]
  ret i32 %.0.lcssa79
}